; Function Attrs: nounwind sspstrong uwtable
define internal noundef i64 @ossl_asn1_traverse(i64 %0, i64 noundef %1) #0 {
  %3 = alloca i64, align 8
  %4 = alloca ptr, align 8
  %5 = alloca i64, align 8
  %6 = alloca i64, align 8
  %7 = alloca i64, align 8
  %8 = alloca ptr, align 8
  call void @llvm.lifetime.start.p0(i64 8, ptr nonnull %4) #9
  call void @llvm.lifetime.start.p0(i64 8, ptr nonnull %5) #9
  call void @llvm.lifetime.start.p0(i64 8, ptr nonnull %6) #9
  store i64 0, ptr %6, align 8, !tbaa !17
  call void @llvm.lifetime.start.p0(i64 8, ptr nonnull %7) #9
  store i64 0, ptr %7, align 8, !tbaa !17
  %9 = tail call i64 @ossl_to_der_if_possible(i64 noundef %1) #9
  store i64 %9, ptr %3, align 8, !tbaa !17
  %10 = call i64 @rb_string_value(ptr noundef nonnull %3) #9
  %11 = call i64 @rb_str_new_frozen(i64 noundef %10) #9
  store i64 %11, ptr %5, align 8, !tbaa !17
  %12 = inttoptr i64 %11 to ptr
  %13 = load i64, ptr %12, align 8, !tbaa !32, !noalias !34
  %14 = and i64 %13, 8192
  %.not.i.i = icmp eq i64 %14, 0
  %15 = getelementptr inbounds nuw i8, ptr %12, i64 24
  br i1 %.not.i.i, label %RSTRING_PTR.exit, label %16

16:                                               ; preds = %2
  %.sroa.2.0.copyload.i = load ptr, ptr %15, align 8
  br label %RSTRING_PTR.exit

RSTRING_PTR.exit:                                 ; preds = %2, %16
  %.sroa.2.0.i = phi ptr [ %.sroa.2.0.copyload.i, %16 ], [ %15, %2 ]
  store ptr %.sroa.2.0.i, ptr %4, align 8, !tbaa !37
  %17 = getelementptr inbounds nuw i8, ptr %12, i64 16
  %18 = load i64, ptr %17, align 8, !tbaa !38
  %19 = call fastcc i64 @ossl_asn1_decode0(ptr noundef %4, i64 noundef %18, ptr noundef %7, i32 noundef 0, i32 noundef 1, ptr noundef %6)
  call void @llvm.lifetime.start.p0(i64 8, ptr nonnull %8) #9
  store ptr %5, ptr %8, align 8, !tbaa !40
  call void asm sideeffect "", "*m,~{dirflag},~{fpsr},~{flags}"(ptr nonnull elementtype(ptr) %8) #9, !srcloc !41
  %20 = load ptr, ptr %8, align 8, !tbaa !40
  call void @llvm.lifetime.end.p0(i64 8, ptr nonnull %8) #9
  %21 = load volatile i64, ptr %20, align 8, !tbaa !17
  %22 = load i64, ptr %6, align 8, !tbaa !17
  %23 = load i64, ptr %7, align 8, !tbaa !17
  %.not.i = icmp eq i64 %18, 0
  br i1 %.not.i, label %int_ossl_decode_sanity_check.exit, label %24

24:                                               ; preds = %RSTRING_PTR.exit
  %.not8.i = icmp eq i64 %22, %18
  %.not9.i = icmp eq i64 %23, %18
  %or.cond.i = and i1 %.not8.i, %.not9.i
  br i1 %or.cond.i, label %int_ossl_decode_sanity_check.exit, label %25

25:                                               ; preds = %24
  %26 = load i64, ptr @eASN1Error, align 8, !tbaa !17
  call void (i64, ptr, ...) @ossl_raise(i64 noundef %26, ptr noundef nonnull @.str.77, i64 noundef %22, i64 noundef %18, i64 noundef %23) #10
  unreachable

int_ossl_decode_sanity_check.exit:                ; preds = %RSTRING_PTR.exit, %24
  call void @llvm.lifetime.end.p0(i64 8, ptr nonnull %7) #9
  call void @llvm.lifetime.end.p0(i64 8, ptr nonnull %6) #9
  call void @llvm.lifetime.end.p0(i64 8, ptr nonnull %5) #9
  call void @llvm.lifetime.end.p0(i64 8, ptr nonnull %4) #9
  ret i64 4
}